target datalayout = "e-m:e-p270:32:32-p271:32:32-p272:64:64-i64:64-i128:128-f80:128-n8:16:32:64-S128"
target triple = "x86_64-pc-linux-gnu"

%class.MainWindowPreferencesFrame = type { %class.QFrame, ptr, ptr, ptr, ptr, ptr, ptr, ptr, ptr, ptr, ptr, ptr, ptr, ptr }
%class.QFrame = type { %class.QWidget }
%class.QWidget = type { %class.QObject, %class.QPaintDevice.base, ptr }
%class.QObject = type { ptr, %class.QScopedPointer }
%class.QScopedPointer = type { ptr }
%class.QPaintDevice.base = type <{ ptr, i16 }>

; Function Attrs: mustprogress uwtable
define void @_ZN26MainWindowPreferencesFrame27on_geometryCheckBox_toggledEb(ptr noundef nonnull align 8 dereferenceable(144) %0, i1 noundef zeroext %1) #0 align 2 {
  %3 = alloca ptr, align 8
  %4 = alloca i8, align 1
  store ptr %0, ptr %3, align 8
  %5 = zext i1 %1 to i8
  store i8 %5, ptr %4, align 1
  %6 = load ptr, ptr %3, align 8
  %7 = getelementptr inbounds %class.MainWindowPreferencesFrame, ptr %6, i32 0, i32 2
  %8 = load ptr, ptr %7, align 8
  %9 = load i8, ptr %4, align 1
  %10 = trunc i8 %9 to i1
  %11 = zext i1 %10 to i32
  %12 = call i32 @prefs_set_bool_value(ptr noundef %8, i32 noundef %11, i32 noundef 1)
  %13 = getelementptr inbounds %class.MainWindowPreferencesFrame, ptr %6, i32 0, i32 3
  %14 = load ptr, ptr %13, align 8
  %15 = load i8, ptr %4, align 1
  %16 = trunc i8 %15 to i1
  %17 = zext i1 %16 to i32
  %18 = call i32 @prefs_set_bool_value(ptr noundef %14, i32 noundef %17, i32 noundef 1)
  %19 = getelementptr inbounds %class.MainWindowPreferencesFrame, ptr %6, i32 0, i32 4
  %20 = load ptr, ptr %19, align 8
  %21 = load i8, ptr %4, align 1
  %22 = trunc i8 %21 to i1
  %23 = zext i1 %22 to i32
  %24 = call i32 @prefs_set_bool_value(ptr noundef %20, i32 noundef %23, i32 noundef 1)
  ret void
}