; Function Attrs: mustprogress uwtable
define void @_ZN26MainWindowPreferencesFrame27on_geometryCheckBox_toggledEb(ptr nocapture noundef nonnull readonly align 8 dereferenceable(144) %0, i1 noundef zeroext %1) local_unnamed_addr #0 align 2 {
  %3 = getelementptr inbounds i8, ptr %0, i64 48
  %4 = load ptr, ptr %3, align 8
  %5 = zext i1 %1 to i32
  %6 = tail call i32 @prefs_set_bool_value(ptr noundef %4, i32 noundef %5, i32 noundef 1)
  %7 = getelementptr inbounds i8, ptr %0, i64 56
  %8 = load ptr, ptr %7, align 8
  %9 = tail call i32 @prefs_set_bool_value(ptr noundef %8, i32 noundef %5, i32 noundef 1)
  %10 = getelementptr inbounds i8, ptr %0, i64 64
  %11 = load ptr, ptr %10, align 8
  %12 = tail call i32 @prefs_set_bool_value(ptr noundef %11, i32 noundef %5, i32 noundef 1)
  ret void
}